target datalayout = "e-m:e-p270:32:32-p271:32:32-p272:64:64-i64:64-i128:128-f80:128-n8:16:32:64-S128"
target triple = "x86_64-pc-linux-gnu"

%struct.pollfd = type { i32, i16, i16 }

; Function Attrs: nounwind uwtable
define dso_local i32 @aeWait(i32 noundef %0, i32 noundef %1, i64 noundef %2) #0 {
  %4 = alloca i32, align 4
  %5 = alloca i32, align 4
  %6 = alloca i32, align 4
  %7 = alloca i64, align 8
  %8 = alloca %struct.pollfd, align 4
  %9 = alloca i32, align 4
  %10 = alloca i32, align 4
  %11 = alloca i32, align 4
  store i32 %0, ptr %5, align 4, !tbaa !5
  store i32 %1, ptr %6, align 4, !tbaa !5
  store i64 %2, ptr %7, align 8, !tbaa !56
  call void @llvm.lifetime.start.p0(i64 8, ptr %8) #10
  call void @llvm.lifetime.start.p0(i64 4, ptr %9) #10
  store i32 0, ptr %9, align 4, !tbaa !5
  call void @llvm.lifetime.start.p0(i64 4, ptr %10) #10
  call void @llvm.memset.p0.i64(ptr align 4 %8, i8 0, i64 8, i1 false)
  %12 = load i32, ptr %5, align 4, !tbaa !5
  %13 = getelementptr inbounds nuw %struct.pollfd, ptr %8, i32 0, i32 0
  store i32 %12, ptr %13, align 4, !tbaa !77
  %14 = load i32, ptr %6, align 4, !tbaa !5
  %15 = and i32 %14, 1
  %16 = icmp ne i32 %15, 0
  br i1 %16, label %17, label %23

17:                                               ; preds = %3
  %18 = getelementptr inbounds nuw %struct.pollfd, ptr %8, i32 0, i32 1
  %19 = load i16, ptr %18, align 4, !tbaa !80
  %20 = sext i16 %19 to i32
  %21 = or i32 %20, 1
  %22 = trunc i32 %21 to i16
  store i16 %22, ptr %18, align 4, !tbaa !80
  br label %23

23:                                               ; preds = %17, %3
  %24 = load i32, ptr %6, align 4, !tbaa !5
  %25 = and i32 %24, 2
  %26 = icmp ne i32 %25, 0
  br i1 %26, label %27, label %33

27:                                               ; preds = %23
  %28 = getelementptr inbounds nuw %struct.pollfd, ptr %8, i32 0, i32 1
  %29 = load i16, ptr %28, align 4, !tbaa !80
  %30 = sext i16 %29 to i32
  %31 = or i32 %30, 4
  %32 = trunc i32 %31 to i16
  store i16 %32, ptr %28, align 4, !tbaa !80
  br label %33

33:                                               ; preds = %27, %23
  %34 = load i64, ptr %7, align 8, !tbaa !56
  %35 = trunc i64 %34 to i32
  %36 = call i32 @poll(ptr noundef %8, i64 noundef 1, i32 noundef %35)
  store i32 %36, ptr %10, align 4, !tbaa !5
  %37 = icmp eq i32 %36, 1
  br i1 %37, label %38, label %76

38:                                               ; preds = %33
  %39 = getelementptr inbounds nuw %struct.pollfd, ptr %8, i32 0, i32 2
  %40 = load i16, ptr %39, align 2, !tbaa !81
  %41 = sext i16 %40 to i32
  %42 = and i32 %41, 1
  %43 = icmp ne i32 %42, 0
  br i1 %43, label %44, label %47

44:                                               ; preds = %38
  %45 = load i32, ptr %9, align 4, !tbaa !5
  %46 = or i32 %45, 1
  store i32 %46, ptr %9, align 4, !tbaa !5
  br label %47

47:                                               ; preds = %44, %38
  %48 = getelementptr inbounds nuw %struct.pollfd, ptr %8, i32 0, i32 2
  %49 = load i16, ptr %48, align 2, !tbaa !81
  %50 = sext i16 %49 to i32
  %51 = and i32 %50, 4
  %52 = icmp ne i32 %51, 0
  br i1 %52, label %53, label %56

53:                                               ; preds = %47
  %54 = load i32, ptr %9, align 4, !tbaa !5
  %55 = or i32 %54, 2
  store i32 %55, ptr %9, align 4, !tbaa !5
  br label %56

56:                                               ; preds = %53, %47
  %57 = getelementptr inbounds nuw %struct.pollfd, ptr %8, i32 0, i32 2
  %58 = load i16, ptr %57, align 2, !tbaa !81
  %59 = sext i16 %58 to i32
  %60 = and i32 %59, 8
  %61 = icmp ne i32 %60, 0
  br i1 %61, label %62, label %65

62:                                               ; preds = %56
  %63 = load i32, ptr %9, align 4, !tbaa !5
  %64 = or i32 %63, 2
  store i32 %64, ptr %9, align 4, !tbaa !5
  br label %65

65:                                               ; preds = %62, %56
  %66 = getelementptr inbounds nuw %struct.pollfd, ptr %8, i32 0, i32 2
  %67 = load i16, ptr %66, align 2, !tbaa !81
  %68 = sext i16 %67 to i32
  %69 = and i32 %68, 16
  %70 = icmp ne i32 %69, 0
  br i1 %70, label %71, label %74

71:                                               ; preds = %65
  %72 = load i32, ptr %9, align 4, !tbaa !5
  %73 = or i32 %72, 2
  store i32 %73, ptr %9, align 4, !tbaa !5
  br label %74

74:                                               ; preds = %71, %65
  %75 = load i32, ptr %9, align 4, !tbaa !5
  store i32 %75, ptr %4, align 4
  store i32 1, ptr %11, align 4
  br label %78

76:                                               ; preds = %33
  %77 = load i32, ptr %10, align 4, !tbaa !5
  store i32 %77, ptr %4, align 4
  store i32 1, ptr %11, align 4
  br label %78

78:                                               ; preds = %76, %74
  call void @llvm.lifetime.end.p0(i64 4, ptr %10) #10
  call void @llvm.lifetime.end.p0(i64 4, ptr %9) #10
  call void @llvm.lifetime.end.p0(i64 8, ptr %8) #10
  %79 = load i32, ptr %4, align 4
  ret i32 %79
}