; Function Attrs: nounwind uwtable
define dso_local i32 @aeWait(i32 noundef %0, i32 noundef %1, i64 noundef %2) local_unnamed_addr #0 {
  %4 = alloca %struct.pollfd, align 8
  call void @llvm.lifetime.start.p0(i64 8, ptr nonnull %4) #16
  store i64 0, ptr %4, align 8
  store i32 %0, ptr %4, align 8, !tbaa !65
  %5 = and i32 %1, 1
  %.not = icmp eq i32 %5, 0
  br i1 %.not, label %8, label %6

6:                                                ; preds = %3
  %7 = getelementptr inbounds nuw i8, ptr %4, i64 4
  store i16 1, ptr %7, align 4, !tbaa !68
  br label %8

8:                                                ; preds = %6, %3
  %9 = phi i16 [ 5, %6 ], [ 4, %3 ]
  %10 = and i32 %1, 2
  %.not13 = icmp eq i32 %10, 0
  br i1 %.not13, label %13, label %11

11:                                               ; preds = %8
  %12 = getelementptr inbounds nuw i8, ptr %4, i64 4
  store i16 %9, ptr %12, align 4, !tbaa !68
  br label %13

13:                                               ; preds = %11, %8
  %14 = trunc i64 %2 to i32
  %15 = call i32 @poll(ptr noundef nonnull %4, i64 noundef 1, i32 noundef %14) #16
  %16 = icmp eq i32 %15, 1
  br i1 %16, label %17, label %26

17:                                               ; preds = %13
  %18 = getelementptr inbounds nuw i8, ptr %4, i64 6
  %19 = load i16, ptr %18, align 2, !tbaa !69
  %20 = and i16 %19, 1
  %21 = lshr i16 %19, 1
  %22 = and i16 %21, 2
  %.118 = or disjoint i16 %22, %20
  %.1 = zext nneg i16 %.118 to i32
  %23 = or i32 %.1, 2
  %24 = and i16 %19, 24
  %25 = icmp eq i16 %24, 0
  %.3 = select i1 %25, i32 %.1, i32 %23
  br label %26

26:                                               ; preds = %13, %17
  %.0 = phi i32 [ %.3, %17 ], [ %15, %13 ]
  call void @llvm.lifetime.end.p0(i64 8, ptr nonnull %4) #16
  ret i32 %.0
}